target datalayout = "e-m:e-p270:32:32-p271:32:32-p272:64:64-i64:64-i128:128-f80:128-n8:16:32:64-S128"
target triple = "x86_64-unknown-linux-gnu"

%"class.rocksdb::InternalKeyComparator" = type { %"class.rocksdb::CompareInterface", %"class.rocksdb::UserComparatorWrapper" }
%"class.rocksdb::CompareInterface" = type { ptr }
%"class.rocksdb::UserComparatorWrapper" = type { ptr }
%"class.std::vector.10" = type { %"struct.std::_Vector_base.11" }
%"struct.std::_Vector_base.11" = type { %"struct.std::_Vector_base<rocksdb::CompressionType, std::allocator<rocksdb::CompressionType>>::_Vector_impl" }
%"struct.std::_Vector_base<rocksdb::CompressionType, std::allocator<rocksdb::CompressionType>>::_Vector_impl" = type { %"struct.std::_Vector_base<rocksdb::CompressionType, std::allocator<rocksdb::CompressionType>>::_Vector_impl_data" }
%"struct.std::_Vector_base<rocksdb::CompressionType, std::allocator<rocksdb::CompressionType>>::_Vector_impl_data" = type { ptr, ptr, ptr }
%"class.std::vector.15" = type { %"struct.std::_Vector_base.16" }
%"struct.std::_Vector_base.16" = type { %"struct.std::_Vector_base<int, std::allocator<int>>::_Vector_impl" }
%"struct.std::_Vector_base<int, std::allocator<int>>::_Vector_impl" = type { %"struct.std::_Vector_base<int, std::allocator<int>>::_Vector_impl_data" }
%"struct.std::_Vector_base<int, std::allocator<int>>::_Vector_impl_data" = type { ptr, ptr, ptr }
%"class.rocksdb::CompactionOptionsUniversal" = type <{ i32, i32, i32, i32, i32, i32, i8, i8, [2 x i8] }>
%"struct.rocksdb::CompactionOptionsFIFO" = type { i64, i8, i64, %"class.std::vector.20" }
%"class.std::vector.20" = type { %"struct.std::_Vector_base.21" }
%"struct.std::_Vector_base.21" = type { %"struct.std::_Vector_base<rocksdb::FileTemperatureAge, std::allocator<rocksdb::FileTemperatureAge>>::_Vector_impl" }
%"struct.std::_Vector_base<rocksdb::FileTemperatureAge, std::allocator<rocksdb::FileTemperatureAge>>::_Vector_impl" = type { %"struct.std::_Vector_base<rocksdb::FileTemperatureAge, std::allocator<rocksdb::FileTemperatureAge>>::_Vector_impl_data" }
%"struct.std::_Vector_base<rocksdb::FileTemperatureAge, std::allocator<rocksdb::FileTemperatureAge>>::_Vector_impl_data" = type { ptr, ptr, ptr }
%"class.std::shared_ptr.25" = type { %"class.std::__shared_ptr.26" }
%"class.std::__shared_ptr.26" = type { ptr, %"class.std::__shared_count" }
%"class.std::__shared_count" = type { ptr }
%"class.std::vector.28" = type { %"struct.std::_Vector_base.29" }
%"struct.std::_Vector_base.29" = type { %"struct.std::_Vector_base<std::shared_ptr<rocksdb::TablePropertiesCollectorFactory>, std::allocator<std::shared_ptr<rocksdb::TablePropertiesCollectorFactory>>>::_Vector_impl" }
%"struct.std::_Vector_base<std::shared_ptr<rocksdb::TablePropertiesCollectorFactory>, std::allocator<std::shared_ptr<rocksdb::TablePropertiesCollectorFactory>>>::_Vector_impl" = type { %"struct.std::_Vector_base<std::shared_ptr<rocksdb::TablePropertiesCollectorFactory>, std::allocator<std::shared_ptr<rocksdb::TablePropertiesCollectorFactory>>>::_Vector_impl_data" }
%"struct.std::_Vector_base<std::shared_ptr<rocksdb::TablePropertiesCollectorFactory>, std::allocator<std::shared_ptr<rocksdb::TablePropertiesCollectorFactory>>>::_Vector_impl_data" = type { ptr, ptr, ptr }
%"class.std::shared_ptr.33" = type { %"class.std::__shared_ptr.34" }
%"class.std::__shared_ptr.34" = type { ptr, %"class.std::__shared_count" }
%"class.std::shared_ptr.36" = type { %"class.std::__shared_ptr.37" }
%"class.std::__shared_ptr.37" = type { ptr, %"class.std::__shared_count" }
%"class.std::shared_ptr.39" = type { %"class.std::__shared_ptr.40" }
%"class.std::__shared_ptr.40" = type { ptr, %"class.std::__shared_count" }
%"struct.rocksdb::CompressionOptions" = type <{ i32, i32, i32, i32, i32, i32, i8, [7 x i8], i64, i8, [3 x i8], i32, i8, [7 x i8] }>
%"class.std::shared_ptr" = type { %"class.std::__shared_ptr" }
%"class.std::__shared_ptr" = type { ptr, %"class.std::__shared_count" }
%"class.std::shared_ptr.42" = type { %"class.std::__shared_ptr.43" }
%"class.std::__shared_ptr.43" = type { ptr, %"class.std::__shared_count" }
%"class.std::vector.45" = type { %"struct.std::_Vector_base.46" }
%"struct.std::_Vector_base.46" = type { %"struct.std::_Vector_base<rocksdb::DbPath, std::allocator<rocksdb::DbPath>>::_Vector_impl" }
%"struct.std::_Vector_base<rocksdb::DbPath, std::allocator<rocksdb::DbPath>>::_Vector_impl" = type { %"struct.std::_Vector_base<rocksdb::DbPath, std::allocator<rocksdb::DbPath>>::_Vector_impl_data" }
%"struct.std::_Vector_base<rocksdb::DbPath, std::allocator<rocksdb::DbPath>>::_Vector_impl_data" = type { ptr, ptr, ptr }
%"class.std::shared_ptr.50" = type { %"class.std::__shared_ptr.51" }
%"class.std::__shared_ptr.51" = type { ptr, %"class.std::__shared_count" }
%"class.std::shared_ptr.53" = type { %"class.std::__shared_ptr.54" }
%"class.std::__shared_ptr.54" = type { ptr, %"class.std::__shared_count" }
%"struct.rocksdb::MutableCFOptions" = type { i64, i32, i64, double, i8, i64, i64, i64, %"class.std::shared_ptr", double, i8, i64, i64, i32, i32, i32, i64, i8, i64, i32, i64, double, i64, i64, %"class.std::vector.15", %"struct.rocksdb::CompactionOptionsFIFO", %"class.rocksdb::CompactionOptionsUniversal", i8, i64, i64, i8, i8, double, double, i64, i32, i8, i64, i8, i8, i8, i8, i8, [3 x i8], %"struct.rocksdb::CompressionOptions", %"struct.rocksdb::CompressionOptions", i8, i32, i8, i64, %"class.std::vector.10", i32, i32, %"class.std::vector.85" }
%"class.std::vector.85" = type { %"struct.std::_Vector_base.86" }
%"struct.std::_Vector_base.86" = type { %"struct.std::_Vector_base<unsigned long, std::allocator<unsigned long>>::_Vector_impl" }
%"struct.std::_Vector_base<unsigned long, std::allocator<unsigned long>>::_Vector_impl" = type { %"struct.std::_Vector_base<unsigned long, std::allocator<unsigned long>>::_Vector_impl_data" }
%"struct.std::_Vector_base<unsigned long, std::allocator<unsigned long>>::_Vector_impl_data" = type { ptr, ptr, ptr }
%"struct.rocksdb::ImmutableCFOptions" = type <{ i8, i8, [6 x i8], ptr, %"class.rocksdb::InternalKeyComparator", %"class.std::shared_ptr.36", ptr, %"class.std::shared_ptr.39", i32, i32, i64, i8, [7 x i8], ptr, %"class.std::shared_ptr.25", %"class.std::shared_ptr.42", %"class.std::vector.28", i32, i8, i8, [2 x i8], i32, i8, i8, i8, i8, i64, i64, %"class.std::shared_ptr", %"class.std::vector.45", %"class.std::shared_ptr.50", %"class.std::shared_ptr.53", %"class.std::shared_ptr.33", i8, [7 x i8] }>
%"struct.std::pair" = type { i32, i32 }

; Function Attrs: mustprogress nounwind uwtable
define linkonce_odr void @_ZNSt4pairIN7rocksdb19WriteStallConditionENS0_15WriteStallCauseEEC2IS1_S2_TnNSt9enable_ifIXaaclsr5_PCCPE22_MoveConstructiblePairIT_T0_EEclsr5_PCCPE30_ImplicitlyMoveConvertiblePairIS6_S7_EEEbE4typeELb1EEEOS6_OS7_(ptr noundef nonnull align 4 dereferenceable(8) %this, ptr noundef nonnull align 4 dereferenceable(4) %__x, ptr noundef nonnull align 4 dereferenceable(4) %__y) unnamed_addr #1 comdat align 2 {
entry:
  %this.addr = alloca ptr, align 8
  %__x.addr = alloca ptr, align 8
  %__y.addr = alloca ptr, align 8
  store ptr %this, ptr %this.addr, align 8
  store ptr %__x, ptr %__x.addr, align 8
  store ptr %__y, ptr %__y.addr, align 8
  %this1 = load ptr, ptr %this.addr, align 8
  %first = getelementptr inbounds %"struct.std::pair", ptr %this1, i32 0, i32 0
  %0 = load ptr, ptr %__x.addr, align 8
  %1 = load i32, ptr %0, align 4
  store i32 %1, ptr %first, align 4
  %second = getelementptr inbounds %"struct.std::pair", ptr %this1, i32 0, i32 1
  %2 = load ptr, ptr %__y.addr, align 8
  %3 = load i32, ptr %2, align 4
  store i32 %3, ptr %second, align 4
  ret void
}

; Function Attrs: mustprogress uwtable
define i64 @_ZN7rocksdb16ColumnFamilyData30GetWriteStallConditionAndCauseEiimRKNS_16MutableCFOptionsERKNS_18ImmutableCFOptionsE(i32 noundef %num_unflushed_memtables, i32 noundef %num_l0_files, i64 noundef %num_compaction_needed_bytes, ptr noundef nonnull align 8 dereferenceable(560) %mutable_cf_options, ptr noundef nonnull align 8 dereferenceable(281) %immutable_cf_options) #0 align 2 {
entry:
  %retval = alloca %"struct.std::pair", align 4
  %num_unflushed_memtables.addr = alloca i32, align 4
  %num_l0_files.addr = alloca i32, align 4
  %num_compaction_needed_bytes.addr = alloca i64, align 8
  %mutable_cf_options.addr = alloca ptr, align 8
  %immutable_cf_options.addr = alloca ptr, align 8
  %ref.tmp = alloca i32, align 4
  %ref.tmp1 = alloca i32, align 4
  %ref.tmp4 = alloca i32, align 4
  %ref.tmp5 = alloca i32, align 4
  %ref.tmp15 = alloca i32, align 4
  %ref.tmp16 = alloca i32, align 4
  %ref.tmp27 = alloca i32, align 4
  %ref.tmp28 = alloca i32, align 4
  %ref.tmp38 = alloca i32, align 4
  %ref.tmp39 = alloca i32, align 4
  %ref.tmp49 = alloca i32, align 4
  %ref.tmp50 = alloca i32, align 4
  %ref.tmp56 = alloca i32, align 4
  %ref.tmp57 = alloca i32, align 4
  store i32 %num_unflushed_memtables, ptr %num_unflushed_memtables.addr, align 4
  store i32 %num_l0_files, ptr %num_l0_files.addr, align 4
  store i64 %num_compaction_needed_bytes, ptr %num_compaction_needed_bytes.addr, align 8
  store ptr %mutable_cf_options, ptr %mutable_cf_options.addr, align 8
  store ptr %immutable_cf_options, ptr %immutable_cf_options.addr, align 8
  %0 = load i32, ptr %num_unflushed_memtables.addr, align 4
  %1 = load ptr, ptr %mutable_cf_options.addr, align 8
  %max_write_buffer_number = getelementptr inbounds %"struct.rocksdb::MutableCFOptions", ptr %1, i32 0, i32 1
  %2 = load i32, ptr %max_write_buffer_number, align 8
  %cmp = icmp sge i32 %0, %2
  br i1 %cmp, label %if.then, label %if.else

if.then:                                          ; preds = %entry
  store i32 1, ptr %ref.tmp, align 4
  store i32 0, ptr %ref.tmp1, align 4
  call void @_ZNSt4pairIN7rocksdb19WriteStallConditionENS0_15WriteStallCauseEEC2IS1_S2_TnNSt9enable_ifIXaaclsr5_PCCPE22_MoveConstructiblePairIT_T0_EEclsr5_PCCPE30_ImplicitlyMoveConvertiblePairIS6_S7_EEEbE4typeELb1EEEOS6_OS7_(ptr noundef nonnull align 4 dereferenceable(8) %retval, ptr noundef nonnull align 4 dereferenceable(4) %ref.tmp, ptr noundef nonnull align 4 dereferenceable(4) %ref.tmp1)
  br label %return

if.else:                                          ; preds = %entry
  %3 = load ptr, ptr %mutable_cf_options.addr, align 8
  %disable_auto_compactions = getelementptr inbounds %"struct.rocksdb::MutableCFOptions", ptr %3, i32 0, i32 10
  %4 = load i8, ptr %disable_auto_compactions, align 8
  %tobool = trunc i8 %4 to i1
  br i1 %tobool, label %if.else6, label %land.lhs.true

land.lhs.true:                                    ; preds = %if.else
  %5 = load i32, ptr %num_l0_files.addr, align 4
  %6 = load ptr, ptr %mutable_cf_options.addr, align 8
  %level0_stop_writes_trigger = getelementptr inbounds %"struct.rocksdb::MutableCFOptions", ptr %6, i32 0, i32 15
  %7 = load i32, ptr %level0_stop_writes_trigger, align 8
  %cmp2 = icmp sge i32 %5, %7
  br i1 %cmp2, label %if.then3, label %if.else6

if.then3:                                         ; preds = %land.lhs.true
  store i32 1, ptr %ref.tmp4, align 4
  store i32 1, ptr %ref.tmp5, align 4
  call void @_ZNSt4pairIN7rocksdb19WriteStallConditionENS0_15WriteStallCauseEEC2IS1_S2_TnNSt9enable_ifIXaaclsr5_PCCPE22_MoveConstructiblePairIT_T0_EEclsr5_PCCPE30_ImplicitlyMoveConvertiblePairIS6_S7_EEEbE4typeELb1EEEOS6_OS7_(ptr noundef nonnull align 4 dereferenceable(8) %retval, ptr noundef nonnull align 4 dereferenceable(4) %ref.tmp4, ptr noundef nonnull align 4 dereferenceable(4) %ref.tmp5)
  br label %return

if.else6:                                         ; preds = %land.lhs.true, %if.else
  %8 = load ptr, ptr %mutable_cf_options.addr, align 8
  %disable_auto_compactions7 = getelementptr inbounds %"struct.rocksdb::MutableCFOptions", ptr %8, i32 0, i32 10
  %9 = load i8, ptr %disable_auto_compactions7, align 8
  %tobool8 = trunc i8 %9 to i1
  br i1 %tobool8, label %if.else17, label %land.lhs.true9

land.lhs.true9:                                   ; preds = %if.else6
  %10 = load ptr, ptr %mutable_cf_options.addr, align 8
  %hard_pending_compaction_bytes_limit = getelementptr inbounds %"struct.rocksdb::MutableCFOptions", ptr %10, i32 0, i32 12
  %11 = load i64, ptr %hard_pending_compaction_bytes_limit, align 8
  %cmp10 = icmp ugt i64 %11, 0
  br i1 %cmp10, label %land.lhs.true11, label %if.else17

land.lhs.true11:                                  ; preds = %land.lhs.true9
  %12 = load i64, ptr %num_compaction_needed_bytes.addr, align 8
  %13 = load ptr, ptr %mutable_cf_options.addr, align 8
  %hard_pending_compaction_bytes_limit12 = getelementptr inbounds %"struct.rocksdb::MutableCFOptions", ptr %13, i32 0, i32 12
  %14 = load i64, ptr %hard_pending_compaction_bytes_limit12, align 8
  %cmp13 = icmp uge i64 %12, %14
  br i1 %cmp13, label %if.then14, label %if.else17

if.then14:                                        ; preds = %land.lhs.true11
  store i32 1, ptr %ref.tmp15, align 4
  store i32 2, ptr %ref.tmp16, align 4
  call void @_ZNSt4pairIN7rocksdb19WriteStallConditionENS0_15WriteStallCauseEEC2IS1_S2_TnNSt9enable_ifIXaaclsr5_PCCPE22_MoveConstructiblePairIT_T0_EEclsr5_PCCPE30_ImplicitlyMoveConvertiblePairIS6_S7_EEEbE4typeELb1EEEOS6_OS7_(ptr noundef nonnull align 4 dereferenceable(8) %retval, ptr noundef nonnull align 4 dereferenceable(4) %ref.tmp15, ptr noundef nonnull align 4 dereferenceable(4) %ref.tmp16)
  br label %return

if.else17:                                        ; preds = %land.lhs.true11, %land.lhs.true9, %if.else6
  %15 = load ptr, ptr %mutable_cf_options.addr, align 8
  %max_write_buffer_number18 = getelementptr inbounds %"struct.rocksdb::MutableCFOptions", ptr %15, i32 0, i32 1
  %16 = load i32, ptr %max_write_buffer_number18, align 8
  %cmp19 = icmp sgt i32 %16, 3
  br i1 %cmp19, label %land.lhs.true20, label %if.else29

land.lhs.true20:                                  ; preds = %if.else17
  %17 = load i32, ptr %num_unflushed_memtables.addr, align 4
  %18 = load ptr, ptr %mutable_cf_options.addr, align 8
  %max_write_buffer_number21 = getelementptr inbounds %"struct.rocksdb::MutableCFOptions", ptr %18, i32 0, i32 1
  %19 = load i32, ptr %max_write_buffer_number21, align 8
  %sub = sub nsw i32 %19, 1
  %cmp22 = icmp sge i32 %17, %sub
  br i1 %cmp22, label %land.lhs.true23, label %if.else29

land.lhs.true23:                                  ; preds = %land.lhs.true20
  %20 = load i32, ptr %num_unflushed_memtables.addr, align 4
  %sub24 = sub nsw i32 %20, 1
  %21 = load ptr, ptr %immutable_cf_options.addr, align 8
  %min_write_buffer_number_to_merge = getelementptr inbounds %"struct.rocksdb::ImmutableCFOptions", ptr %21, i32 0, i32 8
  %22 = load i32, ptr %min_write_buffer_number_to_merge, align 8
  %cmp25 = icmp sge i32 %sub24, %22
  br i1 %cmp25, label %if.then26, label %if.else29

if.then26:                                        ; preds = %land.lhs.true23
  store i32 0, ptr %ref.tmp27, align 4
  store i32 0, ptr %ref.tmp28, align 4
  call void @_ZNSt4pairIN7rocksdb19WriteStallConditionENS0_15WriteStallCauseEEC2IS1_S2_TnNSt9enable_ifIXaaclsr5_PCCPE22_MoveConstructiblePairIT_T0_EEclsr5_PCCPE30_ImplicitlyMoveConvertiblePairIS6_S7_EEEbE4typeELb1EEEOS6_OS7_(ptr noundef nonnull align 4 dereferenceable(8) %retval, ptr noundef nonnull align 4 dereferenceable(4) %ref.tmp27, ptr noundef nonnull align 4 dereferenceable(4) %ref.tmp28)
  br label %return

if.else29:                                        ; preds = %land.lhs.true23, %land.lhs.true20, %if.else17
  %23 = load ptr, ptr %mutable_cf_options.addr, align 8
  %disable_auto_compactions30 = getelementptr inbounds %"struct.rocksdb::MutableCFOptions", ptr %23, i32 0, i32 10
  %24 = load i8, ptr %disable_auto_compactions30, align 8
  %tobool31 = trunc i8 %24 to i1
  br i1 %tobool31, label %if.else40, label %land.lhs.true32

land.lhs.true32:                                  ; preds = %if.else29
  %25 = load ptr, ptr %mutable_cf_options.addr, align 8
  %level0_slowdown_writes_trigger = getelementptr inbounds %"struct.rocksdb::MutableCFOptions", ptr %25, i32 0, i32 14
  %26 = load i32, ptr %level0_slowdown_writes_trigger, align 4
  %cmp33 = icmp sge i32 %26, 0
  br i1 %cmp33, label %land.lhs.true34, label %if.else40

land.lhs.true34:                                  ; preds = %land.lhs.true32
  %27 = load i32, ptr %num_l0_files.addr, align 4
  %28 = load ptr, ptr %mutable_cf_options.addr, align 8
  %level0_slowdown_writes_trigger35 = getelementptr inbounds %"struct.rocksdb::MutableCFOptions", ptr %28, i32 0, i32 14
  %29 = load i32, ptr %level0_slowdown_writes_trigger35, align 4
  %cmp36 = icmp sge i32 %27, %29
  br i1 %cmp36, label %if.then37, label %if.else40

if.then37:                                        ; preds = %land.lhs.true34
  store i32 0, ptr %ref.tmp38, align 4
  store i32 1, ptr %ref.tmp39, align 4
  call void @_ZNSt4pairIN7rocksdb19WriteStallConditionENS0_15WriteStallCauseEEC2IS1_S2_TnNSt9enable_ifIXaaclsr5_PCCPE22_MoveConstructiblePairIT_T0_EEclsr5_PCCPE30_ImplicitlyMoveConvertiblePairIS6_S7_EEEbE4typeELb1EEEOS6_OS7_(ptr noundef nonnull align 4 dereferenceable(8) %retval, ptr noundef nonnull align 4 dereferenceable(4) %ref.tmp38, ptr noundef nonnull align 4 dereferenceable(4) %ref.tmp39)
  br label %return

if.else40:                                        ; preds = %land.lhs.true34, %land.lhs.true32, %if.else29
  %30 = load ptr, ptr %mutable_cf_options.addr, align 8
  %disable_auto_compactions41 = getelementptr inbounds %"struct.rocksdb::MutableCFOptions", ptr %30, i32 0, i32 10
  %31 = load i8, ptr %disable_auto_compactions41, align 8
  %tobool42 = trunc i8 %31 to i1
  br i1 %tobool42, label %if.end, label %land.lhs.true43

land.lhs.true43:                                  ; preds = %if.else40
  %32 = load ptr, ptr %mutable_cf_options.addr, align 8
  %soft_pending_compaction_bytes_limit = getelementptr inbounds %"struct.rocksdb::MutableCFOptions", ptr %32, i32 0, i32 11
  %33 = load i64, ptr %soft_pending_compaction_bytes_limit, align 8
  %cmp44 = icmp ugt i64 %33, 0
  br i1 %cmp44, label %land.lhs.true45, label %if.end

land.lhs.true45:                                  ; preds = %land.lhs.true43
  %34 = load i64, ptr %num_compaction_needed_bytes.addr, align 8
  %35 = load ptr, ptr %mutable_cf_options.addr, align 8
  %soft_pending_compaction_bytes_limit46 = getelementptr inbounds %"struct.rocksdb::MutableCFOptions", ptr %35, i32 0, i32 11
  %36 = load i64, ptr %soft_pending_compaction_bytes_limit46, align 8
  %cmp47 = icmp uge i64 %34, %36
  br i1 %cmp47, label %if.then48, label %if.end

if.then48:                                        ; preds = %land.lhs.true45
  store i32 0, ptr %ref.tmp49, align 4
  store i32 2, ptr %ref.tmp50, align 4
  call void @_ZNSt4pairIN7rocksdb19WriteStallConditionENS0_15WriteStallCauseEEC2IS1_S2_TnNSt9enable_ifIXaaclsr5_PCCPE22_MoveConstructiblePairIT_T0_EEclsr5_PCCPE30_ImplicitlyMoveConvertiblePairIS6_S7_EEEbE4typeELb1EEEOS6_OS7_(ptr noundef nonnull align 4 dereferenceable(8) %retval, ptr noundef nonnull align 4 dereferenceable(4) %ref.tmp49, ptr noundef nonnull align 4 dereferenceable(4) %ref.tmp50)
  br label %return

if.end:                                           ; preds = %land.lhs.true45, %land.lhs.true43, %if.else40
  br label %if.end51

if.end51:                                         ; preds = %if.end
  br label %if.end52

if.end52:                                         ; preds = %if.end51
  br label %if.end53

if.end53:                                         ; preds = %if.end52
  br label %if.end54

if.end54:                                         ; preds = %if.end53
  br label %if.end55

if.end55:                                         ; preds = %if.end54
  store i32 2, ptr %ref.tmp56, align 4
  store i32 6, ptr %ref.tmp57, align 4
  call void @_ZNSt4pairIN7rocksdb19WriteStallConditionENS0_15WriteStallCauseEEC2IS1_S2_TnNSt9enable_ifIXaaclsr5_PCCPE22_MoveConstructiblePairIT_T0_EEclsr5_PCCPE30_ImplicitlyMoveConvertiblePairIS6_S7_EEEbE4typeELb1EEEOS6_OS7_(ptr noundef nonnull align 4 dereferenceable(8) %retval, ptr noundef nonnull align 4 dereferenceable(4) %ref.tmp56, ptr noundef nonnull align 4 dereferenceable(4) %ref.tmp57)
  br label %return

return:                                           ; preds = %if.end55, %if.then48, %if.then37, %if.then26, %if.then14, %if.then3, %if.then
  %37 = load i64, ptr %retval, align 4
  ret i64 %37
}