; Function Attrs: mustprogress nofree norecurse nosync nounwind willreturn memory(argmem: read) uwtable
define i64 @_ZN7rocksdb16ColumnFamilyData30GetWriteStallConditionAndCauseEiimRKNS_16MutableCFOptionsERKNS_18ImmutableCFOptionsE(i32 noundef %num_unflushed_memtables, i32 noundef %num_l0_files, i64 noundef %num_compaction_needed_bytes, ptr nocapture noundef nonnull readonly align 8 dereferenceable(560) %mutable_cf_options, ptr nocapture noundef nonnull readonly align 8 dereferenceable(281) %immutable_cf_options) local_unnamed_addr #11 align 2 {
entry:
  %max_write_buffer_number = getelementptr inbounds i8, ptr %mutable_cf_options, i64 8
  %0 = load i32, ptr %max_write_buffer_number, align 8
  %cmp.not = icmp sgt i32 %0, %num_unflushed_memtables
  br i1 %cmp.not, label %if.else, label %return

if.else:                                          ; preds = %entry
  %disable_auto_compactions = getelementptr inbounds i8, ptr %mutable_cf_options, i64 88
  %1 = load i8, ptr %disable_auto_compactions, align 8
  %2 = and i8 %1, 1
  %tobool.not = icmp ne i8 %2, 0
  %level0_stop_writes_trigger = getelementptr inbounds i8, ptr %mutable_cf_options, i64 120
  %3 = load i32, ptr %level0_stop_writes_trigger, align 8
  %cmp2.not = icmp sgt i32 %3, %num_l0_files
  %or.cond = select i1 %tobool.not, i1 true, i1 %cmp2.not
  br i1 %or.cond, label %if.else6, label %return

if.else6:                                         ; preds = %if.else
  %tobool8.not = icmp eq i8 %2, 0
  br i1 %tobool8.not, label %land.lhs.true9, label %if.else17

land.lhs.true9:                                   ; preds = %if.else6
  %hard_pending_compaction_bytes_limit = getelementptr inbounds i8, ptr %mutable_cf_options, i64 104
  %4 = load i64, ptr %hard_pending_compaction_bytes_limit, align 8
  %5 = add i64 %4, -1
  %or.cond21.not = icmp ult i64 %5, %num_compaction_needed_bytes
  br i1 %or.cond21.not, label %return, label %if.else17

if.else17:                                        ; preds = %land.lhs.true9, %if.else6
  %cmp19 = icmp sgt i32 %0, 3
  %sub = add nsw i32 %0, -1
  %cmp22.not = icmp sle i32 %sub, %num_unflushed_memtables
  %or.cond22.not32 = select i1 %cmp19, i1 %cmp22.not, i1 false
  %min_write_buffer_number_to_merge = getelementptr inbounds i8, ptr %immutable_cf_options, i64 72
  %6 = load i32, ptr %min_write_buffer_number_to_merge, align 8
  %cmp25.not.not = icmp slt i32 %6, %num_unflushed_memtables
  %or.cond23 = select i1 %or.cond22.not32, i1 %cmp25.not.not, i1 false
  br i1 %or.cond23, label %return, label %if.else29

if.else29:                                        ; preds = %if.else17
  br i1 %tobool8.not, label %land.lhs.true32, label %if.end55

land.lhs.true32:                                  ; preds = %if.else29
  %level0_slowdown_writes_trigger = getelementptr inbounds i8, ptr %mutable_cf_options, i64 116
  %7 = load i32, ptr %level0_slowdown_writes_trigger, align 4
  %cmp33 = icmp slt i32 %7, 0
  %cmp36.not = icmp sgt i32 %7, %num_l0_files
  %or.cond24 = or i1 %cmp33, %cmp36.not
  br i1 %or.cond24, label %land.lhs.true43, label %return

land.lhs.true43:                                  ; preds = %land.lhs.true32
  %soft_pending_compaction_bytes_limit = getelementptr inbounds i8, ptr %mutable_cf_options, i64 96
  %8 = load i64, ptr %soft_pending_compaction_bytes_limit, align 8
  %9 = add i64 %8, -1
  %or.cond25.not = icmp ult i64 %9, %num_compaction_needed_bytes
  br i1 %or.cond25.not, label %return, label %if.end55

if.end55:                                         ; preds = %if.else29, %land.lhs.true43
  br label %return

return:                                           ; preds = %land.lhs.true43, %land.lhs.true32, %if.else17, %land.lhs.true9, %if.else, %entry, %if.end55
  %retval.sroa.0.0 = phi i64 [ 2, %if.end55 ], [ 1, %entry ], [ 1, %if.else ], [ 1, %land.lhs.true9 ], [ 0, %if.else17 ], [ 0, %land.lhs.true32 ], [ 0, %land.lhs.true43 ]
  %retval.sroa.8.0 = phi i64 [ 25769803776, %if.end55 ], [ 0, %entry ], [ 4294967296, %if.else ], [ 8589934592, %land.lhs.true9 ], [ 0, %if.else17 ], [ 4294967296, %land.lhs.true32 ], [ 8589934592, %land.lhs.true43 ]
  %retval.sroa.0.0.insert.insert = or disjoint i64 %retval.sroa.8.0, %retval.sroa.0.0
  ret i64 %retval.sroa.0.0.insert.insert
}